target datalayout = "e-m:e-p270:32:32-p271:32:32-p272:64:64-i64:64-i128:128-f80:128-n8:16:32:64-S128"
target triple = "x86_64-pc-linux-gnu"

%struct.Vec_Ptr_t_ = type { i32, i32, ptr }
%struct.Cba_Ntk_t_ = type { ptr, i32, i32, i32, i8, %struct.Vec_Int_t_, %struct.Vec_Int_t_, %struct.Vec_Int_t_, %struct.Vec_Int_t_, %struct.Vec_Str_t_, %struct.Vec_Int_t_, %struct.Vec_Int_t_, %struct.Vec_Int_t_, %struct.Vec_Int_t_, %struct.Vec_Int_t_, %struct.Vec_Int_t_, %struct.Vec_Int_t_, %struct.Vec_Int_t_, %struct.Vec_Int_t_, %struct.Vec_Int_t_, %struct.Vec_Int_t_, %struct.Vec_Int_t_, %struct.Vec_Int_t_, %struct.Vec_Int_t_, %struct.Vec_Int_t_, %struct.Vec_Int_t_, %struct.Vec_Int_t_, %struct.Vec_Int_t_, ptr, %struct.Vec_Int_t_, %struct.Vec_Int_t_ }
%struct.Vec_Str_t_ = type { i32, i32, ptr }
%struct.Vec_Int_t_ = type { i32, i32, ptr }
%struct.Cba_Man_t_ = type { ptr, ptr, ptr, ptr, ptr, ptr, %struct.Vec_Int_t_, %struct.Vec_Int_t_, %struct.Vec_Int_t_, %struct.Vec_Int_t_, [90 x ptr], [90 x i32], [90 x i32], i32, %struct.Vec_Ptr_t_, i32, %struct.Vec_Str_t_, %struct.Vec_Str_t_, ptr }

; Function Attrs: nounwind uwtable
define internal ptr @Vec_PtrEntry(ptr noundef %0, i32 noundef %1) #0 {
  %3 = alloca ptr, align 8
  %4 = alloca i32, align 4
  store ptr %0, ptr %3, align 8
  store i32 %1, ptr %4, align 4
  %5 = load ptr, ptr %3, align 8
  %6 = getelementptr inbounds %struct.Vec_Ptr_t_, ptr %5, i32 0, i32 2
  %7 = load ptr, ptr %6, align 8
  %8 = load i32, ptr %4, align 4
  %9 = sext i32 %8 to i64
  %10 = getelementptr inbounds ptr, ptr %7, i64 %9
  %11 = load ptr, ptr %10, align 8
  ret ptr %11
}

; Function Attrs: nounwind uwtable
define internal i32 @Cba_ManNtkIsOk(ptr noundef %0, i32 noundef %1) #0 {
  %3 = alloca ptr, align 8
  %4 = alloca i32, align 4
  store ptr %0, ptr %3, align 8
  store i32 %1, ptr %4, align 4
  %5 = load i32, ptr %4, align 4
  %6 = icmp sgt i32 %5, 0
  br i1 %6, label %7, label %12

7:                                                ; preds = %2
  %8 = load i32, ptr %4, align 4
  %9 = load ptr, ptr %3, align 8
  %10 = call i32 @Cba_ManNtkNum(ptr noundef %9)
  %11 = icmp sle i32 %8, %10
  br label %12

12:                                               ; preds = %7, %2
  %13 = phi i1 [ false, %2 ], [ %11, %7 ]
  %14 = zext i1 %13 to i32
  ret i32 %14
}

; Function Attrs: nounwind uwtable
define internal i32 @Vec_IntSize(ptr noundef %0) #0 {
  %2 = alloca ptr, align 8
  store ptr %0, ptr %2, align 8
  %3 = load ptr, ptr %2, align 8
  %4 = getelementptr inbounds %struct.Vec_Int_t_, ptr %3, i32 0, i32 1
  %5 = load i32, ptr %4, align 4
  ret i32 %5
}

; Function Attrs: nounwind uwtable
define internal ptr @Cba_ManNtk(ptr noundef %0, i32 noundef %1) #0 {
  %3 = alloca ptr, align 8
  %4 = alloca i32, align 4
  store ptr %0, ptr %3, align 8
  store i32 %1, ptr %4, align 4
  %5 = load ptr, ptr %3, align 8
  %6 = load i32, ptr %4, align 4
  %7 = call i32 @Cba_ManNtkIsOk(ptr noundef %5, i32 noundef %6)
  %8 = icmp ne i32 %7, 0
  br i1 %8, label %9, label %14

9:                                                ; preds = %2
  %10 = load ptr, ptr %3, align 8
  %11 = getelementptr inbounds %struct.Cba_Man_t_, ptr %10, i32 0, i32 14
  %12 = load i32, ptr %4, align 4
  %13 = call ptr @Vec_PtrEntry(ptr noundef %11, i32 noundef %12)
  br label %15

14:                                               ; preds = %2
  br label %15

15:                                               ; preds = %14, %9
  %16 = phi ptr [ %13, %9 ], [ null, %14 ]
  ret ptr %16
}

; Function Attrs: nounwind uwtable
define internal i32 @Vec_PtrSize(ptr noundef %0) #0 {
  %2 = alloca ptr, align 8
  store ptr %0, ptr %2, align 8
  %3 = load ptr, ptr %2, align 8
  %4 = getelementptr inbounds %struct.Vec_Ptr_t_, ptr %3, i32 0, i32 1
  %5 = load i32, ptr %4, align 4
  ret i32 %5
}

; Function Attrs: nounwind uwtable
define internal i32 @Cba_NtkPiNum(ptr noundef %0) #0 {
  %2 = alloca ptr, align 8
  store ptr %0, ptr %2, align 8
  %3 = load ptr, ptr %2, align 8
  %4 = getelementptr inbounds %struct.Cba_Ntk_t_, ptr %3, i32 0, i32 5
  %5 = call i32 @Vec_IntSize(ptr noundef %4)
  ret i32 %5
}

; Function Attrs: nounwind uwtable
define internal i32 @Cba_NtkPoNum(ptr noundef %0) #0 {
  %2 = alloca ptr, align 8
  store ptr %0, ptr %2, align 8
  %3 = load ptr, ptr %2, align 8
  %4 = getelementptr inbounds %struct.Cba_Ntk_t_, ptr %3, i32 0, i32 6
  %5 = call i32 @Vec_IntSize(ptr noundef %4)
  ret i32 %5
}

; Function Attrs: nounwind uwtable
define internal i32 @Cba_NtkId(ptr noundef %0) #0 {
  %2 = alloca ptr, align 8
  store ptr %0, ptr %2, align 8
  %3 = load ptr, ptr %2, align 8
  %4 = getelementptr inbounds %struct.Cba_Ntk_t_, ptr %3, i32 0, i32 1
  %5 = load i32, ptr %4, align 8
  ret i32 %5
}

; Function Attrs: nounwind uwtable
define internal i32 @Cba_NtkPioNum(ptr noundef %0) #0 {
  %2 = alloca ptr, align 8
  store ptr %0, ptr %2, align 8
  %3 = load ptr, ptr %2, align 8
  %4 = call i32 @Cba_NtkPiNum(ptr noundef %3)
  %5 = load ptr, ptr %2, align 8
  %6 = call i32 @Cba_NtkPoNum(ptr noundef %5)
  %7 = add nsw i32 %4, %6
  ret i32 %7
}

; Function Attrs: nounwind uwtable
define internal ptr @Cba_ManRoot(ptr noundef %0) #0 {
  %2 = alloca ptr, align 8
  store ptr %0, ptr %2, align 8
  %3 = load ptr, ptr %2, align 8
  %4 = load ptr, ptr %2, align 8
  %5 = getelementptr inbounds %struct.Cba_Man_t_, ptr %4, i32 0, i32 13
  %6 = load i32, ptr %5, align 8
  %7 = call ptr @Cba_ManNtk(ptr noundef %3, i32 noundef %6)
  ret ptr %7
}

; Function Attrs: nounwind uwtable
define internal i32 @Cba_ManNtkNum(ptr noundef %0) #0 {
  %2 = alloca ptr, align 8
  store ptr %0, ptr %2, align 8
  %3 = load ptr, ptr %2, align 8
  %4 = getelementptr inbounds %struct.Cba_Man_t_, ptr %3, i32 0, i32 14
  %5 = call i32 @Vec_PtrSize(ptr noundef %4)
  %6 = sub nsw i32 %5, 1
  ret i32 %6
}

; Function Attrs: nounwind uwtable
define void @Cba_ManGetClpStats(ptr noundef %0, ptr noundef %1, ptr noundef %2, ptr noundef %3) #0 {
  %5 = alloca ptr, align 8
  %6 = alloca ptr, align 8
  %7 = alloca ptr, align 8
  %8 = alloca ptr, align 8
  %9 = alloca ptr, align 8
  %10 = alloca ptr, align 8
  %11 = alloca ptr, align 8
  %12 = alloca ptr, align 8
  store ptr %0, ptr %5, align 8
  store ptr %1, ptr %6, align 8
  store ptr %2, ptr %7, align 8
  store ptr %3, ptr %8, align 8
  %13 = load ptr, ptr %5, align 8
  %14 = call i32 @Cba_ManNtkNum(ptr noundef %13)
  %15 = add nsw i32 %14, 1
  %16 = sext i32 %15 to i64
  %17 = mul i64 4, %16
  %18 = call noalias ptr @malloc(i64 noundef %17) #12
  %19 = load ptr, ptr %5, align 8
  %20 = call i32 @Cba_ManNtkNum(ptr noundef %19)
  %21 = add nsw i32 %20, 1
  %22 = sext i32 %21 to i64
  %23 = mul i64 4, %22
  call void @llvm.memset.p0.i64(ptr align 1 %18, i8 -1, i64 %23, i1 false)
  store ptr %18, ptr %9, align 8
  %24 = load ptr, ptr %5, align 8
  %25 = call i32 @Cba_ManNtkNum(ptr noundef %24)
  %26 = add nsw i32 %25, 1
  %27 = sext i32 %26 to i64
  %28 = mul i64 4, %27
  %29 = call noalias ptr @malloc(i64 noundef %28) #12
  %30 = load ptr, ptr %5, align 8
  %31 = call i32 @Cba_ManNtkNum(ptr noundef %30)
  %32 = add nsw i32 %31, 1
  %33 = sext i32 %32 to i64
  %34 = mul i64 4, %33
  call void @llvm.memset.p0.i64(ptr align 1 %29, i8 -1, i64 %34, i1 false)
  store ptr %29, ptr %10, align 8
  %35 = load ptr, ptr %5, align 8
  %36 = call i32 @Cba_ManNtkNum(ptr noundef %35)
  %37 = add nsw i32 %36, 1
  %38 = sext i32 %37 to i64
  %39 = mul i64 4, %38
  %40 = call noalias ptr @malloc(i64 noundef %39) #12
  %41 = load ptr, ptr %5, align 8
  %42 = call i32 @Cba_ManNtkNum(ptr noundef %41)
  %43 = add nsw i32 %42, 1
  %44 = sext i32 %43 to i64
  %45 = mul i64 4, %44
  call void @llvm.memset.p0.i64(ptr align 1 %40, i8 -1, i64 %45, i1 false)
  store ptr %40, ptr %11, align 8
  %46 = load ptr, ptr %5, align 8
  %47 = call ptr @Cba_ManRoot(ptr noundef %46)
  store ptr %47, ptr %12, align 8
  %48 = load ptr, ptr %12, align 8
  %49 = load ptr, ptr %9, align 8
  %50 = load ptr, ptr %10, align 8
  %51 = load ptr, ptr %11, align 8
  call void @Cba_ManGetClpStats_rec(ptr noundef %48, ptr noundef %49, ptr noundef %50, ptr noundef %51)
  %52 = load ptr, ptr %12, align 8
  %53 = call i32 @Cba_NtkPioNum(ptr noundef %52)
  %54 = load ptr, ptr %9, align 8
  %55 = load ptr, ptr %12, align 8
  %56 = call i32 @Cba_NtkId(ptr noundef %55)
  %57 = sext i32 %56 to i64
  %58 = getelementptr inbounds i32, ptr %54, i64 %57
  %59 = load i32, ptr %58, align 4
  %60 = add nsw i32 %53, %59
  %61 = load ptr, ptr %6, align 8
  store i32 %60, ptr %61, align 4
  %62 = load ptr, ptr %12, align 8
  %63 = call i32 @Cba_NtkPoNum(ptr noundef %62)
  %64 = load ptr, ptr %10, align 8
  %65 = load ptr, ptr %12, align 8
  %66 = call i32 @Cba_NtkId(ptr noundef %65)
  %67 = sext i32 %66 to i64
  %68 = getelementptr inbounds i32, ptr %64, i64 %67
  %69 = load i32, ptr %68, align 4
  %70 = add nsw i32 %63, %69
  %71 = load ptr, ptr %7, align 8
  store i32 %70, ptr %71, align 4
  %72 = load ptr, ptr %12, align 8
  %73 = call i32 @Cba_NtkPiNum(ptr noundef %72)
  %74 = load ptr, ptr %11, align 8
  %75 = load ptr, ptr %12, align 8
  %76 = call i32 @Cba_NtkId(ptr noundef %75)
  %77 = sext i32 %76 to i64
  %78 = getelementptr inbounds i32, ptr %74, i64 %77
  %79 = load i32, ptr %78, align 4
  %80 = add nsw i32 %73, %79
  %81 = load ptr, ptr %8, align 8
  store i32 %80, ptr %81, align 4
  %82 = load ptr, ptr %9, align 8
  %83 = icmp ne ptr %82, null
  br i1 %83, label %84, label %86

84:                                               ; preds = %4
  %85 = load ptr, ptr %9, align 8
  call void @free(ptr noundef %85) #11
  store ptr null, ptr %9, align 8
  br label %87

86:                                               ; preds = %4
  br label %87

87:                                               ; preds = %86, %84
  %88 = load ptr, ptr %10, align 8
  %89 = icmp ne ptr %88, null
  br i1 %89, label %90, label %92

90:                                               ; preds = %87
  %91 = load ptr, ptr %10, align 8
  call void @free(ptr noundef %91) #11
  store ptr null, ptr %10, align 8
  br label %93

92:                                               ; preds = %87
  br label %93

93:                                               ; preds = %92, %90
  %94 = load ptr, ptr %11, align 8
  %95 = icmp ne ptr %94, null
  br i1 %95, label %96, label %98

96:                                               ; preds = %93
  %97 = load ptr, ptr %11, align 8
  call void @free(ptr noundef %97) #11
  store ptr null, ptr %11, align 8
  br label %99

98:                                               ; preds = %93
  br label %99

99:                                               ; preds = %98, %96
  ret void
}