; Function Attrs: nounwind uwtable
define void @Cba_ManGetClpStats(ptr noundef readonly captures(none) %0, ptr noundef writeonly captures(none) initializes((0, 4)) %1, ptr noundef writeonly captures(none) initializes((0, 4)) %2, ptr noundef writeonly captures(none) initializes((0, 4)) %3) local_unnamed_addr #1 {
  %5 = getelementptr i8, ptr %0, i64 1564
  %.val39 = load i32, ptr %5, align 4
  %6 = sext i32 %.val39 to i64
  %7 = shl nsw i64 %6, 2
  %8 = tail call noalias ptr @malloc(i64 noundef %7) #25
  tail call void @llvm.memset.p0.i64(ptr align 1 %8, i8 -1, i64 %7, i1 false)
  %9 = tail call noalias ptr @malloc(i64 noundef %7) #25
  tail call void @llvm.memset.p0.i64(ptr align 1 %9, i8 -1, i64 %7, i1 false)
  %10 = tail call noalias ptr @malloc(i64 noundef %7) #25
  tail call void @llvm.memset.p0.i64(ptr align 1 %10, i8 -1, i64 %7, i1 false)
  %11 = getelementptr inbounds nuw i8, ptr %0, i64 1552
  %12 = load i32, ptr %11, align 8
  %13 = icmp sgt i32 %12, 0
  %.not.i.i = icmp slt i32 %12, %.val39
  %or.cond = and i1 %13, %.not.i.i
  br i1 %or.cond, label %14, label %19

14:                                               ; preds = %4
  %15 = getelementptr i8, ptr %0, i64 1568
  %.val.i.i = load ptr, ptr %15, align 8
  %16 = zext nneg i32 %12 to i64
  %17 = getelementptr inbounds nuw ptr, ptr %.val.i.i, i64 %16
  %18 = load ptr, ptr %17, align 8
  br label %19

19:                                               ; preds = %4, %14
  %20 = phi ptr [ %18, %14 ], [ null, %4 ]
  tail call void @Cba_ManGetClpStats_rec(ptr noundef %20, ptr noundef %8, ptr noundef %9, ptr noundef %10)
  %21 = getelementptr i8, ptr %20, i64 28
  %.val43 = load i32, ptr %21, align 4
  %22 = getelementptr i8, ptr %20, i64 44
  %.val44 = load i32, ptr %22, align 4
  %23 = add nsw i32 %.val44, %.val43
  %24 = getelementptr i8, ptr %20, i64 8
  %.val42 = load i32, ptr %24, align 8
  %25 = sext i32 %.val42 to i64
  %26 = getelementptr inbounds i32, ptr %8, i64 %25
  %27 = load i32, ptr %26, align 4
  %28 = add nsw i32 %23, %27
  store i32 %28, ptr %1, align 4
  %.val33 = load i32, ptr %22, align 4
  %.val41 = load i32, ptr %24, align 8
  %29 = sext i32 %.val41 to i64
  %30 = getelementptr inbounds i32, ptr %9, i64 %29
  %31 = load i32, ptr %30, align 4
  %32 = add nsw i32 %31, %.val33
  store i32 %32, ptr %2, align 4
  %.val = load i32, ptr %21, align 4
  %.val40 = load i32, ptr %24, align 8
  %33 = sext i32 %.val40 to i64
  %34 = getelementptr inbounds i32, ptr %10, i64 %33
  %35 = load i32, ptr %34, align 4
  %36 = add nsw i32 %35, %.val
  store i32 %36, ptr %3, align 4
  tail call void @free(ptr noundef %8) #26
  tail call void @free(ptr noundef %9) #26
  tail call void @free(ptr noundef %10) #26
  ret void
}